target datalayout = "e-m:e-p270:32:32-p271:32:32-p272:64:64-i64:64-i128:128-f80:128-n8:16:32:64-S128"
target triple = "x86_64-pc-linux-gnu"

%struct.anon = type { i32, i32, i32, i32, i32, i32, i32, %struct.replaygain_synthesis_spec_t, i32, i32, i32, i32, i32, i32, i64, i32, i32, i32, i32, i32, i32, i32, i32, i32, i32, i32, i32, i32, i32, i32, i32, ptr, ptr, %struct.analysis_options, i32, i64, [64 x %struct.compression_setting_t], i32, ptr, ptr, ptr, i32, i32, i32, i32, i32, i64, [5000 x i8], i32, ptr, i32, i32, i32, i32, i32, ptr, ptr, [64 x ptr], i32, %struct.anon.0 }
%struct.replaygain_synthesis_spec_t = type { i32, i32, i32, i32, double }
%struct.analysis_options = type { i32, i32 }
%struct.compression_setting_t = type { i32, %union.anon }
%union.anon = type { ptr }
%struct.anon.0 = type { i32, i32, i32, i32 }

@option_values = internal global %struct.anon zeroinitializer, align 8
@.str.203 = private unnamed_addr constant [5 x i8] c".oga\00", align 1
@.str.222 = private unnamed_addr constant [6 x i8] c".flac\00", align 1

; Function Attrs: nounwind sspstrong uwtable
define internal ptr @get_encoded_outfilename(ptr noundef %0) #0 {
  %2 = alloca ptr, align 8
  %3 = alloca ptr, align 8
  %4 = alloca ptr, align 8
  store ptr %0, ptr %2, align 8, !tbaa !92
  call void @llvm.lifetime.start.p0(i64 8, ptr %3) #17
  %5 = load i32, ptr getelementptr inbounds nuw (%struct.anon, ptr @option_values, i32 0, i32 11), align 4, !tbaa !39
  %6 = icmp ne i32 %5, 0
  %7 = select i1 %6, ptr @.str.203, ptr @.str.222
  store ptr %7, ptr %3, align 8, !tbaa !92
  call void @llvm.lifetime.start.p0(i64 8, ptr %4) #17
  %8 = load ptr, ptr getelementptr inbounds nuw (%struct.anon, ptr @option_values, i32 0, i32 32), align 8, !tbaa !60
  %9 = icmp ne ptr %8, null
  br i1 %9, label %10, label %13

10:                                               ; preds = %1
  %11 = load ptr, ptr %2, align 8, !tbaa !92
  %12 = call ptr @grabbag__file_get_basename(ptr noundef %11)
  store ptr %12, ptr %4, align 8, !tbaa !92
  br label %15

13:                                               ; preds = %1
  %14 = load ptr, ptr %2, align 8, !tbaa !92
  store ptr %14, ptr %4, align 8, !tbaa !92
  br label %15

15:                                               ; preds = %13, %10
  %16 = load ptr, ptr %4, align 8, !tbaa !92
  %17 = load ptr, ptr %3, align 8, !tbaa !92
  %18 = call ptr @get_outfilename(ptr noundef %16, ptr noundef %17)
  call void @llvm.lifetime.end.p0(i64 8, ptr %4) #17
  call void @llvm.lifetime.end.p0(i64 8, ptr %3) #17
  ret ptr %18
}