; Function Attrs: nounwind sspstrong uwtable
define internal fastcc ptr @get_encoded_outfilename(ptr noundef %0) unnamed_addr #0 {
  %2 = load i32, ptr getelementptr inbounds nuw (i8, ptr @option_values, i64 68), align 4, !tbaa !96
  %3 = load ptr, ptr getelementptr inbounds nuw (i8, ptr @option_values, i64 160), align 8, !tbaa !95
  %.not4 = icmp eq ptr %3, null
  br i1 %.not4, label %6, label %4

4:                                                ; preds = %1
  %5 = tail call ptr @grabbag__file_get_basename(ptr noundef %0) #21
  br label %6

6:                                                ; preds = %1, %4
  %.0 = phi ptr [ %5, %4 ], [ %0, %1 ]
  %.not = icmp eq i32 %2, 0
  %7 = select i1 %.not, ptr @.str.222, ptr @.str.203
  %8 = tail call fastcc ptr @get_outfilename(ptr noundef %.0, ptr noundef nonnull %7)
  ret ptr %8
}